target datalayout = "e-m:e-p270:32:32-p271:32:32-p272:64:64-i64:64-i128:128-f80:128-n8:16:32:64-S128"
target triple = "x86_64-pc-linux-gnu"

%struct.bio_st = type { ptr, ptr, ptr, i32, i32, i32, i32, i32, i32, ptr, ptr, i64, i64 }
%struct.bio_f_buffer_ctx_struct = type { i32, i32, ptr, i32, i32, ptr, i32, i32 }

; Function Attrs: nounwind uwtable
define internal i32 @buffer_free(ptr noundef %0) #0 {
  %2 = alloca i32, align 4
  %3 = alloca ptr, align 8
  %4 = alloca ptr, align 8
  %5 = alloca i32, align 4
  store ptr %0, ptr %3, align 8, !tbaa !6
  call void @llvm.lifetime.start.p0(i64 8, ptr %4) #8
  %6 = load ptr, ptr %3, align 8, !tbaa !6
  %7 = icmp eq ptr %6, null
  br i1 %7, label %13, label %8

8:                                                ; preds = %1
  %9 = load ptr, ptr %3, align 8, !tbaa !6
  %10 = getelementptr inbounds nuw %struct.bio_st, ptr %9, i32 0, i32 9
  %11 = load ptr, ptr %10, align 8, !tbaa !15
  %12 = icmp eq ptr %11, null
  br i1 %12, label %13, label %14

13:                                               ; preds = %8, %1
  store i32 0, ptr %2, align 4
  store i32 1, ptr %5, align 4
  br label %33

14:                                               ; preds = %8
  %15 = load ptr, ptr %3, align 8, !tbaa !6
  %16 = getelementptr inbounds nuw %struct.bio_st, ptr %15, i32 0, i32 9
  %17 = load ptr, ptr %16, align 8, !tbaa !15
  store ptr %17, ptr %4, align 8, !tbaa !19
  %18 = load ptr, ptr %4, align 8, !tbaa !19
  %19 = getelementptr inbounds nuw %struct.bio_f_buffer_ctx_struct, ptr %18, i32 0, i32 2
  %20 = load ptr, ptr %19, align 8, !tbaa !30
  call void @free(ptr noundef %20) #8
  %21 = load ptr, ptr %4, align 8, !tbaa !19
  %22 = getelementptr inbounds nuw %struct.bio_f_buffer_ctx_struct, ptr %21, i32 0, i32 5
  %23 = load ptr, ptr %22, align 8, !tbaa !26
  call void @free(ptr noundef %23) #8
  %24 = load ptr, ptr %3, align 8, !tbaa !6
  %25 = getelementptr inbounds nuw %struct.bio_st, ptr %24, i32 0, i32 9
  %26 = load ptr, ptr %25, align 8, !tbaa !15
  call void @free(ptr noundef %26) #8
  %27 = load ptr, ptr %3, align 8, !tbaa !6
  %28 = getelementptr inbounds nuw %struct.bio_st, ptr %27, i32 0, i32 9
  store ptr null, ptr %28, align 8, !tbaa !15
  %29 = load ptr, ptr %3, align 8, !tbaa !6
  %30 = getelementptr inbounds nuw %struct.bio_st, ptr %29, i32 0, i32 3
  store i32 0, ptr %30, align 8, !tbaa !40
  %31 = load ptr, ptr %3, align 8, !tbaa !6
  %32 = getelementptr inbounds nuw %struct.bio_st, ptr %31, i32 0, i32 5
  store i32 0, ptr %32, align 8, !tbaa !41
  store i32 1, ptr %2, align 4
  store i32 1, ptr %5, align 4
  br label %33

33:                                               ; preds = %14, %13
  call void @llvm.lifetime.end.p0(i64 8, ptr %4) #8
  %34 = load i32, ptr %2, align 4
  ret i32 %34
}