; Function Attrs: mustprogress nounwind willreturn uwtable
define internal range(i32 0, 2) i32 @buffer_free(ptr noundef captures(address_is_null) %0) #4 {
  %2 = icmp eq ptr %0, null
  br i1 %2, label %15, label %3

3:                                                ; preds = %1
  %4 = getelementptr inbounds nuw i8, ptr %0, i64 48
  %5 = load ptr, ptr %4, align 8, !tbaa !6
  %6 = icmp eq ptr %5, null
  br i1 %6, label %15, label %7

7:                                                ; preds = %3
  %8 = getelementptr inbounds nuw i8, ptr %5, i64 8
  %9 = load ptr, ptr %8, align 8, !tbaa !25
  tail call void @free(ptr noundef %9) #11
  %10 = getelementptr inbounds nuw i8, ptr %5, i64 24
  %11 = load ptr, ptr %10, align 8, !tbaa !21
  tail call void @free(ptr noundef %11) #11
  %12 = load ptr, ptr %4, align 8, !tbaa !6
  tail call void @free(ptr noundef %12) #11
  store ptr null, ptr %4, align 8, !tbaa !6
  %13 = getelementptr inbounds nuw i8, ptr %0, i64 24
  store i32 0, ptr %13, align 8, !tbaa !32
  %14 = getelementptr inbounds nuw i8, ptr %0, i64 32
  store i32 0, ptr %14, align 8, !tbaa !33
  br label %15

15:                                               ; preds = %1, %3, %7
  %.0 = phi i32 [ 1, %7 ], [ 0, %3 ], [ 0, %1 ]
  ret i32 %.0
}